target datalayout = "e-m:e-p270:32:32-p271:32:32-p272:64:64-i64:64-i128:128-f80:128-n8:16:32:64-S128"
target triple = "x86_64-pc-linux-gnu"

%"class.folly::Codel::Options" = type { %"class.std::chrono::duration", %"class.std::chrono::duration" }
%"class.std::chrono::duration" = type { i64 }
%"class.folly::Codel" = type <{ %"struct.std::atomic", %"struct.std::atomic", %"struct.std::atomic.0", %"struct.std::atomic.0", %"struct.std::atomic.1", %"struct.std::atomic.1", [6 x i8] }>
%"struct.std::atomic" = type { %"struct.std::__atomic_base" }
%"struct.std::__atomic_base" = type { i64 }
%"struct.std::atomic.0" = type { %"class.std::chrono::duration" }
%"struct.std::atomic.1" = type { %"struct.std::__atomic_base.2" }
%"struct.std::__atomic_base.2" = type { i8 }

; Function Attrs: mustprogress nounwind uwtable
define linkonce_odr noundef i64 @_ZNKSt6chrono8durationIlSt5ratioILl1ELl1000EEE5countEv(ptr noundef nonnull align 8 dereferenceable(8) %0) #5 comdat align 2 {
  %2 = alloca ptr, align 8
  store ptr %0, ptr %2, align 8, !tbaa !17
  %3 = load ptr, ptr %2, align 8
  %4 = getelementptr inbounds nuw %"class.std::chrono::duration", ptr %3, i32 0, i32 0
  %5 = load i64, ptr %4, align 8, !tbaa !23
  ret i64 %5
}

; Function Attrs: mustprogress nounwind uwtable
define linkonce_odr noundef zeroext i1 @_ZNSt6chronoltIlSt5ratioILl1ELl1000EElS2_EEbRKNS_8durationIT_T0_EERKNS3_IT1_T2_EE(ptr noundef nonnull align 8 dereferenceable(8) %0, ptr noundef nonnull align 8 dereferenceable(8) %1) #5 comdat {
  %3 = alloca ptr, align 8
  %4 = alloca ptr, align 8
  %5 = alloca %"class.std::chrono::duration", align 8
  %6 = alloca %"class.std::chrono::duration", align 8
  store ptr %0, ptr %3, align 8, !tbaa !17
  store ptr %1, ptr %4, align 8, !tbaa !17
  call void @llvm.lifetime.start.p0(i64 8, ptr %5) #11
  %7 = load ptr, ptr %3, align 8, !tbaa !17
  call void @llvm.memcpy.p0.p0.i64(ptr align 8 %5, ptr align 8 %7, i64 8, i1 false), !tbaa.struct !14
  %8 = call noundef i64 @_ZNKSt6chrono8durationIlSt5ratioILl1ELl1000EEE5countEv(ptr noundef nonnull align 8 dereferenceable(8) %5)
  call void @llvm.lifetime.start.p0(i64 8, ptr %6) #11
  %9 = load ptr, ptr %4, align 8, !tbaa !17
  call void @llvm.memcpy.p0.p0.i64(ptr align 8 %6, ptr align 8 %9, i64 8, i1 false), !tbaa.struct !14
  %10 = call noundef i64 @_ZNKSt6chrono8durationIlSt5ratioILl1ELl1000EEE5countEv(ptr noundef nonnull align 8 dereferenceable(8) %6)
  %11 = icmp slt i64 %8, %10
  call void @llvm.lifetime.end.p0(i64 8, ptr %6) #11
  call void @llvm.lifetime.end.p0(i64 8, ptr %5) #11
  ret i1 %11
}

; Function Attrs: mustprogress nounwind uwtable
define linkonce_odr noundef nonnull align 8 dereferenceable(16) ptr @_ZN5folly5Codel7Options11setIntervalENSt6chrono8durationIlSt5ratioILl1ELl1000EEEE(ptr noundef nonnull align 8 dereferenceable(16) %0, i64 %1) #5 comdat align 2 {
  %3 = alloca %"class.std::chrono::duration", align 8
  %4 = alloca ptr, align 8
  %5 = getelementptr inbounds nuw %"class.std::chrono::duration", ptr %3, i32 0, i32 0
  store i64 %1, ptr %5, align 8
  store ptr %0, ptr %4, align 8, !tbaa !12
  %6 = load ptr, ptr %4, align 8
  %7 = getelementptr inbounds nuw %"class.folly::Codel::Options", ptr %6, i32 0, i32 0
  call void @llvm.memcpy.p0.p0.i64(ptr align 8 %7, ptr align 8 %3, i64 8, i1 false), !tbaa.struct !14
  ret ptr %6
}

; Function Attrs: mustprogress nounwind uwtable
define linkonce_odr noundef nonnull align 8 dereferenceable(16) ptr @_ZN5folly5Codel7Options14setTargetDelayENSt6chrono8durationIlSt5ratioILl1ELl1000EEEE(ptr noundef nonnull align 8 dereferenceable(16) %0, i64 %1) #5 comdat align 2 {
  %3 = alloca %"class.std::chrono::duration", align 8
  %4 = alloca ptr, align 8
  %5 = getelementptr inbounds nuw %"class.std::chrono::duration", ptr %3, i32 0, i32 0
  store i64 %1, ptr %5, align 8
  store ptr %0, ptr %4, align 8, !tbaa !12
  %6 = load ptr, ptr %4, align 8
  %7 = getelementptr inbounds nuw %"class.folly::Codel::Options", ptr %6, i32 0, i32 1
  call void @llvm.memcpy.p0.p0.i64(ptr align 8 %7, ptr align 8 %3, i64 8, i1 false), !tbaa.struct !14
  ret ptr %6
}

; Function Attrs: inlinehint mustprogress nounwind uwtable
define linkonce_odr noundef nonnull align 8 dereferenceable(8) ptr @_ZSt3minINSt6chrono8durationIlSt5ratioILl1ELl1000EEEEERKT_S7_S7_(ptr noundef nonnull align 8 dereferenceable(8) %0, ptr noundef nonnull align 8 dereferenceable(8) %1) #10 comdat {
  %3 = alloca ptr, align 8
  %4 = alloca ptr, align 8
  %5 = alloca ptr, align 8
  store ptr %0, ptr %4, align 8, !tbaa !17
  store ptr %1, ptr %5, align 8, !tbaa !17
  %6 = load ptr, ptr %5, align 8, !tbaa !17
  %7 = load ptr, ptr %4, align 8, !tbaa !17
  %8 = call noundef zeroext i1 @_ZNSt6chronoltIlSt5ratioILl1ELl1000EElS2_EEbRKNS_8durationIT_T0_EERKNS3_IT1_T2_EE(ptr noundef nonnull align 8 dereferenceable(8) %6, ptr noundef nonnull align 8 dereferenceable(8) %7)
  br i1 %8, label %9, label %11

9:                                                ; preds = %2
  %10 = load ptr, ptr %5, align 8, !tbaa !17
  store ptr %10, ptr %3, align 8
  br label %13

11:                                               ; preds = %2
  %12 = load ptr, ptr %4, align 8, !tbaa !17
  store ptr %12, ptr %3, align 8
  br label %13

13:                                               ; preds = %11, %9
  %14 = load ptr, ptr %3, align 8
  ret ptr %14
}

; Function Attrs: mustprogress nounwind uwtable
define linkonce_odr i64 @_ZNKSt6atomicINSt6chrono8durationIlSt5ratioILl1ELl1000EEEEE4loadESt12memory_order(ptr noundef nonnull align 8 dereferenceable(8) %0, i32 noundef %1) #5 comdat align 2 {
  %3 = alloca %"class.std::chrono::duration", align 8
  %4 = alloca ptr, align 8
  %5 = alloca i32, align 4
  %6 = alloca [8 x i8], align 8
  %7 = alloca ptr, align 8
  store ptr %0, ptr %4, align 8, !tbaa !33
  store i32 %1, ptr %5, align 4, !tbaa !52
  %8 = load ptr, ptr %4, align 8
  call void @llvm.lifetime.start.p0(i64 8, ptr %6) #11
  call void @llvm.lifetime.start.p0(i64 8, ptr %7) #11
  %9 = getelementptr inbounds [8 x i8], ptr %6, i64 0, i64 0
  store ptr %9, ptr %7, align 8, !tbaa !17
  %10 = getelementptr inbounds nuw %"struct.std::atomic.0", ptr %8, i32 0, i32 0
  %11 = load i32, ptr %5, align 4, !tbaa !52
  %12 = load ptr, ptr %7, align 8, !tbaa !17
  switch i32 %11, label %13 [
    i32 1, label %15
    i32 2, label %15
    i32 5, label %17
  ]

13:                                               ; preds = %2
  %14 = load atomic i64, ptr %10 monotonic, align 8
  store i64 %14, ptr %12, align 8
  br label %19

15:                                               ; preds = %2, %2
  %16 = load atomic i64, ptr %10 acquire, align 8
  store i64 %16, ptr %12, align 8
  br label %19

17:                                               ; preds = %2
  %18 = load atomic i64, ptr %10 seq_cst, align 8
  store i64 %18, ptr %12, align 8
  br label %19

19:                                               ; preds = %17, %15, %13
  %20 = load ptr, ptr %7, align 8, !tbaa !17
  call void @llvm.memcpy.p0.p0.i64(ptr align 8 %3, ptr align 8 %20, i64 8, i1 false), !tbaa.struct !14
  call void @llvm.lifetime.end.p0(i64 8, ptr %7) #11
  call void @llvm.lifetime.end.p0(i64 8, ptr %6) #11
  %21 = getelementptr inbounds nuw %"class.std::chrono::duration", ptr %3, i32 0, i32 0
  %22 = load i64, ptr %21, align 8
  ret i64 %22
}

; Function Attrs: mustprogress uwtable
define { i64, i64 } @_ZNK5folly5Codel10getOptionsEv(ptr noundef nonnull align 8 dereferenceable(34) %0) #2 align 2 {
  %2 = alloca %"class.folly::Codel::Options", align 8
  %3 = alloca ptr, align 8
  %4 = alloca %"class.std::chrono::duration", align 8
  %5 = alloca %"class.std::chrono::duration", align 8
  %6 = alloca %"class.folly::Codel::Options", align 8
  %7 = alloca %"class.std::chrono::duration", align 8
  %8 = alloca %"class.std::chrono::duration", align 8
  store ptr %0, ptr %3, align 8, !tbaa !7
  %9 = load ptr, ptr %3, align 8
  call void @llvm.lifetime.start.p0(i64 8, ptr %4) #11
  %10 = getelementptr inbounds nuw %"class.folly::Codel", ptr %9, i32 0, i32 3
  %11 = call i64 @_ZNKSt6atomicINSt6chrono8durationIlSt5ratioILl1ELl1000EEEEE4loadESt12memory_order(ptr noundef nonnull align 8 dereferenceable(8) %10, i32 noundef 0) #11
  %12 = getelementptr inbounds nuw %"class.std::chrono::duration", ptr %4, i32 0, i32 0
  store i64 %11, ptr %12, align 8
  call void @llvm.lifetime.start.p0(i64 8, ptr %5) #11
  %13 = getelementptr inbounds nuw %"class.folly::Codel", ptr %9, i32 0, i32 2
  %14 = call i64 @_ZNKSt6atomicINSt6chrono8durationIlSt5ratioILl1ELl1000EEEEE4loadESt12memory_order(ptr noundef nonnull align 8 dereferenceable(8) %13, i32 noundef 0) #11
  %15 = getelementptr inbounds nuw %"class.std::chrono::duration", ptr %5, i32 0, i32 0
  store i64 %14, ptr %15, align 8
  %16 = call noundef nonnull align 8 dereferenceable(8) ptr @_ZSt3minINSt6chrono8durationIlSt5ratioILl1ELl1000EEEEERKT_S7_S7_(ptr noundef nonnull align 8 dereferenceable(8) %5, ptr noundef nonnull align 8 dereferenceable(8) %4)
  call void @llvm.memcpy.p0.p0.i64(ptr align 8 %5, ptr align 8 %16, i64 8, i1 false), !tbaa.struct !14
  call void @llvm.lifetime.start.p0(i64 16, ptr %6) #11
  call void @llvm.memset.p0.i64(ptr align 8 %6, i8 0, i64 16, i1 false)
  call void @llvm.memcpy.p0.p0.i64(ptr align 8 %7, ptr align 8 %5, i64 8, i1 false), !tbaa.struct !14
  %17 = getelementptr inbounds nuw %"class.std::chrono::duration", ptr %7, i32 0, i32 0
  %18 = load i64, ptr %17, align 8
  %19 = call noundef nonnull align 8 dereferenceable(16) ptr @_ZN5folly5Codel7Options14setTargetDelayENSt6chrono8durationIlSt5ratioILl1ELl1000EEEE(ptr noundef nonnull align 8 dereferenceable(16) %6, i64 %18)
  call void @llvm.memcpy.p0.p0.i64(ptr align 8 %8, ptr align 8 %4, i64 8, i1 false), !tbaa.struct !14
  %20 = getelementptr inbounds nuw %"class.std::chrono::duration", ptr %8, i32 0, i32 0
  %21 = load i64, ptr %20, align 8
  %22 = call noundef nonnull align 8 dereferenceable(16) ptr @_ZN5folly5Codel7Options11setIntervalENSt6chrono8durationIlSt5ratioILl1ELl1000EEEE(ptr noundef nonnull align 8 dereferenceable(16) %19, i64 %21)
  call void @llvm.memcpy.p0.p0.i64(ptr align 8 %2, ptr align 8 %22, i64 16, i1 false), !tbaa.struct !51
  call void @llvm.lifetime.end.p0(i64 16, ptr %6) #11
  call void @llvm.lifetime.end.p0(i64 8, ptr %5) #11
  call void @llvm.lifetime.end.p0(i64 8, ptr %4) #11
  %23 = load { i64, i64 }, ptr %2, align 8
  ret { i64, i64 } %23
}