; Function Attrs: mustprogress nofree norecurse nounwind willreturn memory(argmem: readwrite) uwtable
define { i64, i64 } @_ZNK5folly5Codel10getOptionsEv(ptr noundef nonnull readonly align 8 captures(none) dereferenceable(34) %0) local_unnamed_addr #3 align 2 {
  %2 = getelementptr inbounds nuw i8, ptr %0, i64 24
  %3 = load atomic i64, ptr %2 monotonic, align 8
  %4 = getelementptr inbounds nuw i8, ptr %0, i64 16
  %5 = load atomic i64, ptr %4 monotonic, align 8
  %.sroa.speculated = tail call i64 @llvm.smin.i64(i64 %3, i64 %5)
  %.fca.0.insert = insertvalue { i64, i64 } poison, i64 %3, 0
  %.fca.1.insert = insertvalue { i64, i64 } %.fca.0.insert, i64 %.sroa.speculated, 1
  ret { i64, i64 } %.fca.1.insert
}